target datalayout = "e-m:e-p270:32:32-p271:32:32-p272:64:64-i64:64-i128:128-f80:128-n8:16:32:64-S128"
target triple = "x86_64-pc-linux-gnu"

%struct.RelFileLocator = type { i32, i32, i32 }
%struct.ItemPointerData = type { %struct.BlockIdData, i16 }
%struct.BlockIdData = type { i16, i16 }
%struct.BTScanOpaqueData = type { i8, i32, ptr, i32, i8, i8, i8, ptr, ptr, ptr, ptr, i32, ptr, ptr, i32, %struct.BTScanPosData, %struct.BTScanPosData }
%struct.BTScanPosData = type { i32, i32, i32, i32, i64, i32, i32, i8, i8, i32, i32, i32, [1358 x %struct.BTScanPosItem] }
%struct.BTScanPosItem = type { %struct.ItemPointerData, i16, i16 }
%struct.IndexScanDescData = type { ptr, ptr, ptr, i32, i32, ptr, ptr, i8, i8, i8, i8, i8, ptr, ptr, ptr, ptr, ptr, %struct.ItemPointerData, i8, ptr, i8, ptr, ptr, i8, ptr }
%struct.BTParallelScanDescData = type { i32, i32, i32, i8, %struct.ConditionVariable, [0 x i32] }
%struct.ConditionVariable = type { i8, %struct.proclist_head }
%struct.proclist_head = type { i32, i32 }
%struct.ParallelIndexScanDescData = type { %struct.RelFileLocator, %struct.RelFileLocator, i64, [0 x i8] }

@.str = private unnamed_addr constant [9 x i8] c"nbtree.c\00", align 1
@__func__._bt_parallel_done = private unnamed_addr constant [18 x i8] c"_bt_parallel_done\00", align 1

; Function Attrs: inlinehint nounwind uwtable
define internal i32 @tas(ptr noundef %0) #2 {
  %2 = alloca ptr, align 8
  %3 = alloca i8, align 1
  store ptr %0, ptr %2, align 8
  call void @llvm.lifetime.start.p0(i64 1, ptr %3) #8
  store i8 1, ptr %3, align 1
  %4 = load i8, ptr %3, align 1
  %5 = load ptr, ptr %2, align 8
  %6 = call i8 asm sideeffect "\09lock\09\09\09\0A\09xchgb\09$0,$1\09\0A", "=q,=*m,0,*m,~{memory},~{cc},~{dirflag},~{fpsr},~{flags}"(ptr elementtype(i8) %5, i8 %4, ptr elementtype(i8) %5) #8, !srcloc !11
  store i8 %6, ptr %3, align 1
  %7 = load i8, ptr %3, align 1
  %8 = zext i8 %7 to i32
  call void @llvm.lifetime.end.p0(i64 1, ptr %3) #8
  ret i32 %8
}

; Function Attrs: nounwind uwtable
define dso_local void @_bt_parallel_done(ptr noundef %0) #0 {
  %2 = alloca ptr, align 8
  %3 = alloca ptr, align 8
  %4 = alloca ptr, align 8
  %5 = alloca ptr, align 8
  %6 = alloca i8, align 1
  %7 = alloca i32, align 4
  store ptr %0, ptr %2, align 8
  call void @llvm.lifetime.start.p0(i64 8, ptr %3) #8
  %8 = load ptr, ptr %2, align 8
  %9 = getelementptr inbounds nuw %struct.IndexScanDescData, ptr %8, i32 0, i32 12
  %10 = load ptr, ptr %9, align 8
  store ptr %10, ptr %3, align 8
  call void @llvm.lifetime.start.p0(i64 8, ptr %4) #8
  %11 = load ptr, ptr %2, align 8
  %12 = getelementptr inbounds nuw %struct.IndexScanDescData, ptr %11, i32 0, i32 24
  %13 = load ptr, ptr %12, align 8
  store ptr %13, ptr %4, align 8
  call void @llvm.lifetime.start.p0(i64 8, ptr %5) #8
  call void @llvm.lifetime.start.p0(i64 1, ptr %6) #8
  store i8 0, ptr %6, align 1
  %14 = load ptr, ptr %4, align 8
  %15 = icmp eq ptr %14, null
  br i1 %15, label %16, label %17

16:                                               ; preds = %1
  store i32 1, ptr %7, align 4
  br label %58

17:                                               ; preds = %1
  %18 = load ptr, ptr %3, align 8
  %19 = getelementptr inbounds nuw %struct.BTScanOpaqueData, ptr %18, i32 0, i32 4
  %20 = load i8, ptr %19, align 4, !range !4, !noundef !5
  %21 = trunc i8 %20 to i1
  br i1 %21, label %22, label %23

22:                                               ; preds = %17
  store i32 1, ptr %7, align 4
  br label %58

23:                                               ; preds = %17
  %24 = load ptr, ptr %4, align 8
  %25 = load ptr, ptr %4, align 8
  %26 = getelementptr inbounds nuw %struct.ParallelIndexScanDescData, ptr %25, i32 0, i32 2
  %27 = load i64, ptr %26, align 8
  %28 = getelementptr inbounds nuw i8, ptr %24, i64 %27
  store ptr %28, ptr %5, align 8
  %29 = load ptr, ptr %5, align 8
  %30 = getelementptr inbounds nuw %struct.BTParallelScanDescData, ptr %29, i32 0, i32 3
  %31 = call i32 @tas(ptr noundef %30)
  %32 = icmp ne i32 %31, 0
  br i1 %32, label %33, label %37

33:                                               ; preds = %23
  %34 = load ptr, ptr %5, align 8
  %35 = getelementptr inbounds nuw %struct.BTParallelScanDescData, ptr %34, i32 0, i32 3
  %36 = call i32 @s_lock(ptr noundef %35, ptr noundef @.str, i32 noundef 804, ptr noundef @__func__._bt_parallel_done)
  br label %38

37:                                               ; preds = %23
  br label %38

38:                                               ; preds = %37, %33
  %39 = load ptr, ptr %5, align 8
  %40 = getelementptr inbounds nuw %struct.BTParallelScanDescData, ptr %39, i32 0, i32 2
  %41 = load i32, ptr %40, align 4
  %42 = icmp ne i32 %41, 4
  br i1 %42, label %43, label %46

43:                                               ; preds = %38
  %44 = load ptr, ptr %5, align 8
  %45 = getelementptr inbounds nuw %struct.BTParallelScanDescData, ptr %44, i32 0, i32 2
  store i32 4, ptr %45, align 4
  store i8 1, ptr %6, align 1
  br label %46

46:                                               ; preds = %43, %38
  br label %47

47:                                               ; preds = %46
  call void asm sideeffect "", "~{memory},~{dirflag},~{fpsr},~{flags}"() #8, !srcloc !14
  %48 = load ptr, ptr %5, align 8
  %49 = getelementptr inbounds nuw %struct.BTParallelScanDescData, ptr %48, i32 0, i32 3
  store i8 0, ptr %49, align 4
  br label %50

50:                                               ; preds = %47
  br label %51

51:                                               ; preds = %50
  %52 = load i8, ptr %6, align 1, !range !4, !noundef !5
  %53 = trunc i8 %52 to i1
  br i1 %53, label %54, label %57

54:                                               ; preds = %51
  %55 = load ptr, ptr %5, align 8
  %56 = getelementptr inbounds nuw %struct.BTParallelScanDescData, ptr %55, i32 0, i32 4
  call void @ConditionVariableBroadcast(ptr noundef %56)
  br label %57

57:                                               ; preds = %54, %51
  store i32 0, ptr %7, align 4
  br label %58

58:                                               ; preds = %57, %22, %16
  call void @llvm.lifetime.end.p0(i64 1, ptr %6) #8
  call void @llvm.lifetime.end.p0(i64 8, ptr %5) #8
  call void @llvm.lifetime.end.p0(i64 8, ptr %4) #8
  call void @llvm.lifetime.end.p0(i64 8, ptr %3) #8
  %59 = load i32, ptr %7, align 4
  switch i32 %59, label %61 [
    i32 0, label %60
    i32 1, label %60
  ]

60:                                               ; preds = %58, %58
  ret void

61:                                               ; preds = %58
  unreachable
}