; Function Attrs: nounwind uwtable
define dso_local void @_bt_parallel_done(ptr noundef readonly captures(none) %0) local_unnamed_addr #0 {
  %2 = getelementptr inbounds nuw i8, ptr %0, i64 144
  %3 = load ptr, ptr %2, align 8
  %4 = icmp eq ptr %3, null
  br i1 %4, label %24, label %5

5:                                                ; preds = %1
  %6 = getelementptr inbounds nuw i8, ptr %0, i64 56
  %7 = load ptr, ptr %6, align 8
  %8 = getelementptr inbounds nuw i8, ptr %7, i64 20
  %9 = load i8, ptr %8, align 4, !range !4, !noundef !5
  %10 = trunc nuw i8 %9 to i1
  br i1 %10, label %24, label %11

11:                                               ; preds = %5
  %12 = getelementptr inbounds nuw i8, ptr %3, i64 24
  %13 = load i64, ptr %12, align 8
  %14 = getelementptr inbounds nuw i8, ptr %3, i64 %13
  %15 = getelementptr inbounds nuw i8, ptr %14, i64 12
  %16 = tail call i8 asm sideeffect "\09lock\09\09\09\0A\09xchgb\09$0,$1\09\0A", "=q,=*m,0,*m,~{memory},~{cc},~{dirflag},~{fpsr},~{flags}"(ptr nonnull elementtype(i8) %15, i8 1, ptr nonnull elementtype(i8) %15) #8, !srcloc !10
  %.not = icmp eq i8 %16, 0
  br i1 %.not, label %19, label %17

17:                                               ; preds = %11
  %18 = tail call i32 @s_lock(ptr noundef nonnull %15, ptr noundef nonnull @.str, i32 noundef 804, ptr noundef nonnull @__func__._bt_parallel_done) #8
  br label %19

19:                                               ; preds = %11, %17
  %20 = getelementptr inbounds nuw i8, ptr %14, i64 8
  %21 = load i32, ptr %20, align 4
  %.not13.not = icmp eq i32 %21, 4
  br i1 %.not13.not, label %.critedge, label %22

22:                                               ; preds = %19
  store i32 4, ptr %20, align 4
  tail call void asm sideeffect "", "~{memory},~{dirflag},~{fpsr},~{flags}"() #8, !srcloc !14
  store i8 0, ptr %15, align 4
  %23 = getelementptr inbounds nuw i8, ptr %14, i64 16
  tail call void @ConditionVariableBroadcast(ptr noundef nonnull %23) #8
  br label %24

.critedge:                                        ; preds = %19
  tail call void asm sideeffect "", "~{memory},~{dirflag},~{fpsr},~{flags}"() #8, !srcloc !14
  store i8 0, ptr %15, align 4
  br label %24

24:                                               ; preds = %22, %.critedge, %5, %1
  ret void
}